; Function Attrs: mustprogress uwtable
define hidden void @_ZN4cvc58internal6theory7strings8StrategyC2ERNS0_3EnvE(ptr noundef nonnull align 8 dereferenceable(96) %0, ptr noundef nonnull align 8 dereferenceable(696) %1) unnamed_addr #3 align 2 personality ptr @__gxx_personality_v0 {
  tail call void @_ZN4cvc58internal6EnvObjC2ERNS0_3EnvE(ptr noundef nonnull align 8 dereferenceable(16) %0, ptr noundef nonnull align 8 dereferenceable(696) %1)
  store ptr getelementptr inbounds nuw inrange(-16, 16) (i8, ptr @_ZTVN4cvc58internal6theory7strings8StrategyE, i64 16), ptr %0, align 8, !tbaa !3
  %3 = getelementptr inbounds nuw i8, ptr %0, i64 16
  store i8 0, ptr %3, align 8, !tbaa !6
  %4 = getelementptr inbounds nuw i8, ptr %0, i64 24
  tail call void @llvm.memset.p0.i64(ptr noundef nonnull align 8 dereferenceable(24) %4, i8 0, i64 24, i1 false)
  %5 = getelementptr inbounds nuw i8, ptr %0, i64 56
  store i32 0, ptr %5, align 8, !tbaa !28
  %6 = getelementptr inbounds nuw i8, ptr %0, i64 64
  store ptr null, ptr %6, align 8, !tbaa !29
  %7 = getelementptr inbounds nuw i8, ptr %0, i64 72
  store ptr %5, ptr %7, align 8, !tbaa !30
  %8 = getelementptr inbounds nuw i8, ptr %0, i64 80
  store ptr %5, ptr %8, align 8, !tbaa !31
  %9 = getelementptr inbounds nuw i8, ptr %0, i64 88
  store i64 0, ptr %9, align 8, !tbaa !32
  ret void
}